target datalayout = "e-m:e-p270:32:32-p271:32:32-p272:64:64-i64:64-i128:128-f80:128-n8:16:32:64-S128"
target triple = "x86_64-pc-linux-gnu"

@.str.62 = private unnamed_addr constant [14 x i8] c"unnamed datum\00", align 1
@.str.64 = private unnamed_addr constant [12 x i8] c"unnamed crs\00", align 1
@.str.92 = private unnamed_addr constant [25 x i8] c"Reference prime meridian\00", align 1
@.str.93 = private unnamed_addr constant [68 x i8] c"Cannot compute transformation from geocentric CRS to geographic CRS\00", align 1

; Function Attrs: mustprogress uwtable
define internal noundef ptr @_ZL43create_operation_geocentric_crs_to_geog_crsP6pj_ctxPK8PJconsts(ptr noundef %0, ptr noundef %1) #1 {
  %3 = alloca ptr, align 8
  %4 = alloca ptr, align 8
  %5 = alloca ptr, align 8
  %6 = alloca ptr, align 8
  %7 = alloca ptr, align 8
  %8 = alloca ptr, align 8
  %9 = alloca double, align 8
  %10 = alloca double, align 8
  %11 = alloca ptr, align 8
  %12 = alloca ptr, align 8
  %13 = alloca ptr, align 8
  %14 = alloca i32, align 4
  %15 = alloca ptr, align 8
  store ptr %0, ptr %4, align 8
  store ptr %1, ptr %5, align 8
  %16 = load ptr, ptr %4, align 8
  %17 = load ptr, ptr %5, align 8
  %18 = call ptr @proj_crs_get_datum_forced(ptr noundef %16, ptr noundef %17)
  store ptr %18, ptr %6, align 8
  %19 = load ptr, ptr %4, align 8
  %20 = call ptr @proj_create_ellipsoidal_2D_cs(ptr noundef %19, i32 noundef 0, ptr noundef null, double noundef 0.000000e+00)
  store ptr %20, ptr %7, align 8
  %21 = load ptr, ptr %4, align 8
  %22 = load ptr, ptr %6, align 8
  %23 = call ptr @proj_get_ellipsoid(ptr noundef %21, ptr noundef %22)
  store ptr %23, ptr %8, align 8
  %24 = load ptr, ptr %6, align 8
  %25 = call ptr @proj_destroy(ptr noundef %24)
  store double 0.000000e+00, ptr %9, align 8
  store double 0.000000e+00, ptr %10, align 8
  %26 = load ptr, ptr %4, align 8
  %27 = load ptr, ptr %8, align 8
  %28 = call i32 @proj_ellipsoid_get_parameters(ptr noundef %26, ptr noundef %27, ptr noundef %9, ptr noundef null, ptr noundef null, ptr noundef %10)
  %29 = load ptr, ptr %4, align 8
  %30 = load ptr, ptr %8, align 8
  %31 = call ptr @proj_get_name(ptr noundef %30)
  %32 = load double, ptr %9, align 8
  %33 = load double, ptr %10, align 8
  %34 = load ptr, ptr %7, align 8
  %35 = call ptr @proj_create_geographic_crs(ptr noundef %29, ptr noundef @.str.64, ptr noundef @.str.62, ptr noundef %31, double noundef %32, double noundef %33, ptr noundef @.str.92, double noundef 0.000000e+00, ptr noundef null, double noundef 0.000000e+00, ptr noundef %34)
  store ptr %35, ptr %11, align 8
  %36 = load ptr, ptr %8, align 8
  %37 = call ptr @proj_destroy(ptr noundef %36)
  %38 = load ptr, ptr %7, align 8
  %39 = call ptr @proj_destroy(ptr noundef %38)
  %40 = load ptr, ptr %4, align 8
  %41 = call ptr @proj_create_operation_factory_context(ptr noundef %40, ptr noundef null)
  store ptr %41, ptr %12, align 8
  %42 = load ptr, ptr %4, align 8
  %43 = load ptr, ptr %12, align 8
  call void @proj_operation_factory_context_set_spatial_criterion(ptr noundef %42, ptr noundef %43, i32 noundef 1)
  %44 = load ptr, ptr %4, align 8
  %45 = load ptr, ptr %12, align 8
  call void @proj_operation_factory_context_set_grid_availability_use(ptr noundef %44, ptr noundef %45, i32 noundef 1)
  %46 = load ptr, ptr %4, align 8
  %47 = load ptr, ptr %5, align 8
  %48 = load ptr, ptr %11, align 8
  %49 = load ptr, ptr %12, align 8
  %50 = call ptr @proj_create_operations(ptr noundef %46, ptr noundef %47, ptr noundef %48, ptr noundef %49)
  store ptr %50, ptr %13, align 8
  %51 = load ptr, ptr %12, align 8
  call void @proj_operation_factory_context_destroy(ptr noundef %51)
  %52 = load ptr, ptr %11, align 8
  %53 = call ptr @proj_destroy(ptr noundef %52)
  %54 = load ptr, ptr %13, align 8
  %55 = icmp eq ptr %54, null
  br i1 %55, label %56, label %57

56:                                               ; preds = %2
  br label %60

57:                                               ; preds = %2
  %58 = load ptr, ptr %13, align 8
  %59 = call i32 @proj_list_get_count(ptr noundef %58)
  br label %60

60:                                               ; preds = %57, %56
  %61 = phi i32 [ 0, %56 ], [ %59, %57 ]
  store i32 %61, ptr %14, align 4
  %62 = load i32, ptr %14, align 4
  %63 = icmp ne i32 %62, 1
  br i1 %63, label %64, label %67

64:                                               ; preds = %60
  %65 = load ptr, ptr %4, align 8
  call void (ptr, ptr, ...) @_Z22proj_context_log_debugP6pj_ctxPKcz(ptr noundef %65, ptr noundef @.str.93)
  %66 = load ptr, ptr %13, align 8
  call void @proj_list_destroy(ptr noundef %66)
  store ptr null, ptr %3, align 8
  br label %73

67:                                               ; preds = %60
  %68 = load ptr, ptr %4, align 8
  %69 = load ptr, ptr %13, align 8
  %70 = call ptr @proj_list_get(ptr noundef %68, ptr noundef %69, i32 noundef 0)
  store ptr %70, ptr %15, align 8
  %71 = load ptr, ptr %13, align 8
  call void @proj_list_destroy(ptr noundef %71)
  %72 = load ptr, ptr %15, align 8
  store ptr %72, ptr %3, align 8
  br label %73

73:                                               ; preds = %67, %64
  %74 = load ptr, ptr %3, align 8
  ret ptr %74
}